target datalayout = "e-m:e-p270:32:32-p271:32:32-p272:64:64-i64:64-i128:128-f80:128-n8:16:32:64-S128"
target triple = "x86_64-pc-linux-gnu"

%struct.H5C_cache_entry_t = type { ptr, i64, i64, ptr, i8, ptr, i8, i8, i8, i8, i32, i8, i8, i8, i8, i8, i32, ptr, i32, i32, i32, i32, i32, i8, i8, ptr, ptr, ptr, ptr, ptr, ptr, i8, i32, i8, i64, ptr, i64, i64, i32, i8, i32, i32, i8, ptr, ptr, ptr }
%struct.H5SM_index_header_t = type { i32, i64, i64, i64, i64, i32, i64, i64, i64 }
%struct.H5O_mesg_loc_t = type { i32, i64 }
%struct.H5SM_sohm_t = type { i32, i32, i32, %union.anon.0 }
%union.anon.0 = type { %struct.H5O_mesg_loc_t }
%struct.H5SM_list_t = type { %struct.H5C_cache_entry_t, ptr, ptr }

@H5SM_init_g = global i8 0, align 1
@H5_libterm_g = external global i8, align 1

; Function Attrs: nounwind uwtable
define internal i32 @H5SM__bt2_convert_to_list_op(ptr noundef %0, ptr noundef %1) #0 {
  %3 = alloca ptr, align 8
  %4 = alloca ptr, align 8
  %5 = alloca ptr, align 8
  %6 = alloca ptr, align 8
  %7 = alloca i64, align 8
  store ptr %0, ptr %3, align 8, !tbaa !57
  store ptr %1, ptr %4, align 8, !tbaa !57
  call void @llvm.lifetime.start.p0(i64 8, ptr %5) #8
  %8 = load ptr, ptr %3, align 8, !tbaa !57
  store ptr %8, ptr %5, align 8, !tbaa !57
  call void @llvm.lifetime.start.p0(i64 8, ptr %6) #8
  %9 = load ptr, ptr %4, align 8, !tbaa !57
  store ptr %9, ptr %6, align 8, !tbaa !57
  call void @llvm.lifetime.start.p0(i64 8, ptr %7) #8
  %10 = load i8, ptr @H5SM_init_g, align 1, !tbaa !18, !range !20, !noundef !21
  %11 = trunc i8 %10 to i1
  br i1 %11, label %16, label %12

12:                                               ; preds = %2
  %13 = load i8, ptr @H5_libterm_g, align 1, !tbaa !18, !range !20, !noundef !21
  %14 = trunc i8 %13 to i1
  %15 = xor i1 %14, true
  br label %16

16:                                               ; preds = %12, %2
  %17 = phi i1 [ true, %2 ], [ %15, %12 ]
  %18 = xor i1 %17, true
  %19 = xor i1 %18, true
  %20 = zext i1 %19 to i32
  %21 = sext i32 %20 to i64
  %22 = call i64 @llvm.expect.i64(i64 %21, i64 1)
  %23 = icmp ne i64 %22, 0
  br i1 %23, label %24, label %37

24:                                               ; preds = %16
  %25 = load ptr, ptr %6, align 8, !tbaa !57
  %26 = getelementptr inbounds nuw %struct.H5SM_list_t, ptr %25, i32 0, i32 1
  %27 = load ptr, ptr %26, align 8, !tbaa !126
  %28 = getelementptr inbounds nuw %struct.H5SM_index_header_t, ptr %27, i32 0, i32 4
  %29 = load i64, ptr %28, align 8, !tbaa !42
  %30 = add i64 %29, 1
  store i64 %30, ptr %28, align 8, !tbaa !42
  store i64 %29, ptr %7, align 8, !tbaa !16
  %31 = load ptr, ptr %6, align 8, !tbaa !57
  %32 = getelementptr inbounds nuw %struct.H5SM_list_t, ptr %31, i32 0, i32 2
  %33 = load ptr, ptr %32, align 8, !tbaa !97
  %34 = load i64, ptr %7, align 8, !tbaa !16
  %35 = getelementptr inbounds nuw %struct.H5SM_sohm_t, ptr %33, i64 %34
  %36 = load ptr, ptr %5, align 8, !tbaa !57
  call void @llvm.memcpy.p0.p0.i64(ptr align 8 %35, ptr align 8 %36, i64 32, i1 false)
  br label %37

37:                                               ; preds = %24, %16
  call void @llvm.lifetime.end.p0(i64 8, ptr %7) #8
  call void @llvm.lifetime.end.p0(i64 8, ptr %6) #8
  call void @llvm.lifetime.end.p0(i64 8, ptr %5) #8
  ret i32 0
}