; Function Attrs: mustprogress nofree norecurse nosync nounwind willreturn memory(readwrite, inaccessiblemem: none) uwtable
define internal noundef i32 @H5SM__bt2_convert_to_list_op(ptr noundef readonly captures(none) %0, ptr noundef readonly captures(none) %1) #9 {
  %3 = load i8, ptr @H5SM_init_g, align 1, !tbaa !9, !range !11, !noundef !12
  %4 = trunc nuw i8 %3 to i1
  %5 = load i8, ptr @H5_libterm_g, align 1, !range !11
  %6 = trunc nuw i8 %5 to i1
  %7 = xor i1 %6, true
  %8 = select i1 %4, i1 true, i1 %7
  br i1 %8, label %9, label %18, !prof !13

9:                                                ; preds = %2
  %10 = getelementptr inbounds nuw i8, ptr %1, i64 248
  %11 = load ptr, ptr %10, align 8, !tbaa !84
  %12 = getelementptr inbounds nuw i8, ptr %11, i64 32
  %13 = load i64, ptr %12, align 8, !tbaa !34
  %14 = add i64 %13, 1
  store i64 %14, ptr %12, align 8, !tbaa !34
  %15 = getelementptr inbounds nuw i8, ptr %1, i64 256
  %16 = load ptr, ptr %15, align 8, !tbaa !86
  %17 = getelementptr inbounds nuw %struct.H5SM_sohm_t, ptr %16, i64 %13
  tail call void @llvm.memcpy.p0.p0.i64(ptr noundef nonnull align 8 dereferenceable(32) %17, ptr noundef nonnull align 8 dereferenceable(32) %0, i64 32, i1 false)
  br label %18

18:                                               ; preds = %9, %2
  ret i32 0
}